target datalayout = "e-m:e-p270:32:32-p271:32:32-p272:64:64-i64:64-i128:128-f80:128-n8:16:32:64-S128"
target triple = "x86_64-pc-linux-gnu"

%struct._value_string = type { i32, ptr }

@.str.27 = private unnamed_addr constant [18 x i8] c"invalid value: %s\00", align 1

; Function Attrs: null_pointer_is_valid sspstrong uwtable
define zeroext i1 @uat_fld_chk_enum(ptr noundef %0, ptr noundef %1, i32 noundef %2, ptr noundef %3, ptr noundef %4, ptr noundef %5) #0 {
  %7 = alloca i1, align 1
  %8 = alloca ptr, align 8
  %9 = alloca ptr, align 8
  %10 = alloca i32, align 4
  %11 = alloca ptr, align 8
  %12 = alloca ptr, align 8
  %13 = alloca ptr, align 8
  %14 = alloca ptr, align 8
  %15 = alloca i32, align 4
  %16 = alloca ptr, align 8
  %17 = alloca i32, align 4
  store ptr %0, ptr %8, align 8
  store ptr %1, ptr %9, align 8
  store i32 %2, ptr %10, align 4
  store ptr %3, ptr %11, align 8
  store ptr %4, ptr %12, align 8
  store ptr %5, ptr %13, align 8
  call void @llvm.lifetime.start.p0(i64 8, ptr %14) #13
  %18 = load ptr, ptr %9, align 8
  %19 = load i32, ptr %10, align 4
  %20 = zext i32 %19 to i64
  %21 = call noalias ptr @g_strndup(ptr noundef %18, i64 noundef %20)
  store ptr %21, ptr %14, align 8
  call void @llvm.lifetime.start.p0(i64 4, ptr %15) #13
  call void @llvm.lifetime.start.p0(i64 8, ptr %16) #13
  %22 = load ptr, ptr %11, align 8
  store ptr %22, ptr %16, align 8
  store i32 0, ptr %15, align 4
  br label %23

23:                                               ; preds = %45, %6
  %24 = load ptr, ptr %16, align 8
  %25 = load i32, ptr %15, align 4
  %26 = zext i32 %25 to i64
  %27 = getelementptr %struct._value_string, ptr %24, i64 %26
  %28 = getelementptr inbounds nuw %struct._value_string, ptr %27, i32 0, i32 1
  %29 = load ptr, ptr %28, align 8
  %30 = icmp ne ptr %29, null
  br i1 %30, label %31, label %48

31:                                               ; preds = %23
  %32 = load ptr, ptr %16, align 8
  %33 = load i32, ptr %15, align 4
  %34 = zext i32 %33 to i64
  %35 = getelementptr %struct._value_string, ptr %32, i64 %34
  %36 = getelementptr inbounds nuw %struct._value_string, ptr %35, i32 0, i32 1
  %37 = load ptr, ptr %36, align 8
  %38 = load ptr, ptr %14, align 8
  %39 = call i32 @g_strcmp0(ptr noundef %37, ptr noundef %38)
  %40 = icmp eq i32 %39, 0
  br i1 %40, label %41, label %44

41:                                               ; preds = %31
  %42 = load ptr, ptr %13, align 8
  store ptr null, ptr %42, align 8
  %43 = load ptr, ptr %14, align 8
  call void @g_free(ptr noundef %43)
  store i1 true, ptr %7, align 1
  store i32 1, ptr %17, align 4
  br label %53

44:                                               ; preds = %31
  br label %45

45:                                               ; preds = %44
  %46 = load i32, ptr %15, align 4
  %47 = add i32 %46, 1
  store i32 %47, ptr %15, align 4
  br label %23, !llvm.loop !32

48:                                               ; preds = %23
  %49 = load ptr, ptr %14, align 8
  %50 = call noalias ptr (ptr, ptr, ...) @wmem_strdup_printf(ptr noundef null, ptr noundef @.str.27, ptr noundef %49)
  %51 = load ptr, ptr %13, align 8
  store ptr %50, ptr %51, align 8
  %52 = load ptr, ptr %14, align 8
  call void @g_free(ptr noundef %52)
  store i1 false, ptr %7, align 1
  store i32 1, ptr %17, align 4
  br label %53

53:                                               ; preds = %48, %41
  call void @llvm.lifetime.end.p0(i64 8, ptr %16) #13
  call void @llvm.lifetime.end.p0(i64 4, ptr %15) #13
  call void @llvm.lifetime.end.p0(i64 8, ptr %14) #13
  %54 = load i1, ptr %7, align 1
  ret i1 %54
}